target datalayout = "e-m:e-p270:32:32-p271:32:32-p272:64:64-i64:64-i128:128-f80:128-n8:16:32:64-S128"
target triple = "x86_64-pc-linux-gnu"

%struct.AVFormatContext = type { ptr, ptr, ptr, ptr, ptr, i32, i32, ptr, i32, ptr, i32, ptr, ptr, i64, i64, i64, i32, i32, i32, i64, i64, ptr, i32, i32, ptr, i32, i32, i32, i32, ptr, i64, i32, i32, %struct.AVIOInterruptCB, i32, i32, i32, i32, i64, i32, i32, i32, i32, i32, i32, i32, i32, i32, i32, i32, i32, i64, i32, i32, i32, i32, i32, ptr, ptr, ptr, ptr, i32, ptr, ptr, ptr, ptr, i32, ptr, ptr, i64, ptr, ptr, ptr, i64 }
%struct.AVIOInterruptCB = type { ptr, ptr }
%struct.AVStream = type { ptr, i32, i32, ptr, ptr, %struct.AVRational, i64, i64, i64, i32, i32, %struct.AVRational, ptr, %struct.AVRational, %struct.AVPacket, i32, %struct.AVRational, i32 }
%struct.AVPacket = type { ptr, i64, i64, ptr, i32, i32, i32, ptr, i32, i64, i64, ptr, ptr, %struct.AVRational }
%struct.AVRational = type { i32, i32 }
%struct.OGGStreamContext = type { i32, [3 x ptr], [3 x i32], i32, i64, i32, i32, i32, i32, %struct.OGGPage, i32, i64 }
%struct.OGGPage = type { i64, i64, i32, i8, i8, [255 x i8], [65025 x i8], i16 }
%struct.OGGContext = type { ptr, ptr, i32, i64, i32 }
%struct.OGGPageList = type { %struct.OGGPage, ptr }

; Function Attrs: alwaysinline nounwind willreturn memory(none) uwtable
define internal i32 @av_bswap32(i32 noundef %0) #8 {
  %2 = alloca i32, align 4
  store i32 %0, ptr %2, align 4, !tbaa !11
  %3 = load i32, ptr %2, align 4, !tbaa !11
  %4 = shl i32 %3, 8
  %5 = and i32 %4, 65280
  %6 = load i32, ptr %2, align 4, !tbaa !11
  %7 = lshr i32 %6, 8
  %8 = and i32 %7, 255
  %9 = or i32 %5, %8
  %10 = shl i32 %9, 16
  %11 = load i32, ptr %2, align 4, !tbaa !11
  %12 = lshr i32 %11, 16
  %13 = shl i32 %12, 8
  %14 = and i32 %13, 65280
  %15 = load i32, ptr %2, align 4, !tbaa !11
  %16 = lshr i32 %15, 16
  %17 = lshr i32 %16, 8
  %18 = and i32 %17, 255
  %19 = or i32 %14, %18
  %20 = or i32 %10, %19
  ret i32 %20
}

; Function Attrs: alwaysinline nounwind uwtable
define internal void @bytestream_put_be32(ptr noundef %0, i32 noundef %1) #6 {
  %3 = alloca ptr, align 8
  %4 = alloca i32, align 4
  store ptr %0, ptr %3, align 8, !tbaa !120
  store i32 %1, ptr %4, align 4, !tbaa !11
  %5 = load i32, ptr %4, align 4, !tbaa !11
  %6 = call i32 @av_bswap32(i32 noundef %5) #10
  %7 = load ptr, ptr %3, align 8, !tbaa !120
  %8 = load ptr, ptr %7, align 8, !tbaa !39
  store i32 %6, ptr %8, align 1, !tbaa !79
  %9 = load ptr, ptr %3, align 8, !tbaa !120
  %10 = load ptr, ptr %9, align 8, !tbaa !39
  %11 = getelementptr inbounds i8, ptr %10, i64 4
  store ptr %11, ptr %9, align 8, !tbaa !39
  ret void
}

; Function Attrs: alwaysinline nounwind uwtable
define internal void @bytestream_put_buffer(ptr noundef %0, ptr noundef %1, i32 noundef %2) #6 {
  %4 = alloca ptr, align 8
  %5 = alloca ptr, align 8
  %6 = alloca i32, align 4
  store ptr %0, ptr %4, align 8, !tbaa !120
  store ptr %1, ptr %5, align 8, !tbaa !39
  store i32 %2, ptr %6, align 4, !tbaa !11
  %7 = load ptr, ptr %4, align 8, !tbaa !120
  %8 = load ptr, ptr %7, align 8, !tbaa !39
  %9 = load ptr, ptr %5, align 8, !tbaa !39
  %10 = load i32, ptr %6, align 4, !tbaa !11
  %11 = zext i32 %10 to i64
  call void @llvm.memcpy.p0.p0.i64(ptr align 1 %8, ptr align 1 %9, i64 %11, i1 false)
  %12 = load i32, ptr %6, align 4, !tbaa !11
  %13 = load ptr, ptr %4, align 8, !tbaa !120
  %14 = load ptr, ptr %13, align 8, !tbaa !39
  %15 = zext i32 %12 to i64
  %16 = getelementptr inbounds nuw i8, ptr %14, i64 %15
  store ptr %16, ptr %13, align 8, !tbaa !39
  ret void
}

; Function Attrs: alwaysinline nounwind uwtable
define internal void @bytestream_put_le64(ptr noundef %0, i64 noundef %1) #6 {
  %3 = alloca ptr, align 8
  %4 = alloca i64, align 8
  store ptr %0, ptr %3, align 8, !tbaa !120
  store i64 %1, ptr %4, align 8, !tbaa !91
  %5 = load i64, ptr %4, align 8, !tbaa !91
  %6 = load ptr, ptr %3, align 8, !tbaa !120
  %7 = load ptr, ptr %6, align 8, !tbaa !39
  store i64 %5, ptr %7, align 1, !tbaa !79
  %8 = load ptr, ptr %3, align 8, !tbaa !120
  %9 = load ptr, ptr %8, align 8, !tbaa !39
  %10 = getelementptr inbounds i8, ptr %9, i64 8
  store ptr %10, ptr %8, align 8, !tbaa !39
  ret void
}

; Function Attrs: alwaysinline nounwind uwtable
define internal void @bytestream_put_byte(ptr noundef %0, i32 noundef %1) #6 {
  %3 = alloca ptr, align 8
  %4 = alloca i32, align 4
  store ptr %0, ptr %3, align 8, !tbaa !120
  store i32 %1, ptr %4, align 4, !tbaa !11
  br label %5

5:                                                ; preds = %2
  %6 = load i32, ptr %4, align 4, !tbaa !11
  %7 = trunc i32 %6 to i8
  %8 = load ptr, ptr %3, align 8, !tbaa !120
  %9 = load ptr, ptr %8, align 8, !tbaa !39
  %10 = getelementptr inbounds i8, ptr %9, i64 0
  store i8 %7, ptr %10, align 1, !tbaa !79
  br label %11

11:                                               ; preds = %5
  %12 = load ptr, ptr %3, align 8, !tbaa !120
  %13 = load ptr, ptr %12, align 8, !tbaa !39
  %14 = getelementptr inbounds i8, ptr %13, i64 1
  store ptr %14, ptr %12, align 8, !tbaa !39
  ret void
}

; Function Attrs: alwaysinline nounwind uwtable
define internal void @bytestream_put_le32(ptr noundef %0, i32 noundef %1) #6 {
  %3 = alloca ptr, align 8
  %4 = alloca i32, align 4
  store ptr %0, ptr %3, align 8, !tbaa !120
  store i32 %1, ptr %4, align 4, !tbaa !11
  %5 = load i32, ptr %4, align 4, !tbaa !11
  %6 = load ptr, ptr %3, align 8, !tbaa !120
  %7 = load ptr, ptr %6, align 8, !tbaa !39
  store i32 %5, ptr %7, align 1, !tbaa !79
  %8 = load ptr, ptr %3, align 8, !tbaa !120
  %9 = load ptr, ptr %8, align 8, !tbaa !39
  %10 = getelementptr inbounds i8, ptr %9, i64 4
  store ptr %10, ptr %8, align 8, !tbaa !39
  ret void
}

; Function Attrs: nounwind uwtable
define internal void @ogg_write_page(ptr noundef %0, ptr noundef %1, i32 noundef %2) #0 {
  %4 = alloca ptr, align 8
  %5 = alloca ptr, align 8
  %6 = alloca i32, align 4
  %7 = alloca ptr, align 8
  %8 = alloca [282 x i8], align 16
  %9 = alloca ptr, align 8
  %10 = alloca ptr, align 8
  %11 = alloca ptr, align 8
  %12 = alloca i32, align 4
  store ptr %0, ptr %4, align 8, !tbaa !4
  store ptr %1, ptr %5, align 8, !tbaa !95
  store i32 %2, ptr %6, align 4, !tbaa !11
  call void @llvm.lifetime.start.p0(i64 8, ptr %7) #9
  %13 = load ptr, ptr %4, align 8, !tbaa !4
  %14 = getelementptr inbounds nuw %struct.AVFormatContext, ptr %13, i32 0, i32 7
  %15 = load ptr, ptr %14, align 8, !tbaa !29
  %16 = load ptr, ptr %5, align 8, !tbaa !95
  %17 = getelementptr inbounds nuw %struct.OGGPage, ptr %16, i32 0, i32 2
  %18 = load i32, ptr %17, align 8, !tbaa !101
  %19 = sext i32 %18 to i64
  %20 = getelementptr inbounds ptr, ptr %15, i64 %19
  %21 = load ptr, ptr %20, align 8, !tbaa !30
  %22 = getelementptr inbounds nuw %struct.AVStream, ptr %21, i32 0, i32 4
  %23 = load ptr, ptr %22, align 8, !tbaa !32
  store ptr %23, ptr %7, align 8, !tbaa !9
  call void @llvm.lifetime.start.p0(i64 282, ptr %8) #9
  call void @llvm.lifetime.start.p0(i64 8, ptr %9) #9
  %24 = getelementptr inbounds [282 x i8], ptr %8, i64 0, i64 0
  store ptr %24, ptr %9, align 8, !tbaa !39
  call void @llvm.lifetime.start.p0(i64 8, ptr %10) #9
  call void @llvm.lifetime.start.p0(i64 8, ptr %11) #9
  %25 = call ptr @av_crc_get_table(i32 noundef 3)
  store ptr %25, ptr %11, align 8, !tbaa !116
  call void @llvm.lifetime.start.p0(i64 4, ptr %12) #9
  call void @bytestream_put_le32(ptr noundef %9, i32 noundef 1399285583)
  call void @bytestream_put_byte(ptr noundef %9, i32 noundef 0)
  %26 = load ptr, ptr %5, align 8, !tbaa !95
  %27 = getelementptr inbounds nuw %struct.OGGPage, ptr %26, i32 0, i32 3
  %28 = load i8, ptr %27, align 4, !tbaa !98
  %29 = zext i8 %28 to i32
  %30 = load i32, ptr %6, align 4, !tbaa !11
  %31 = or i32 %29, %30
  call void @bytestream_put_byte(ptr noundef %9, i32 noundef %31)
  %32 = load ptr, ptr %5, align 8, !tbaa !95
  %33 = getelementptr inbounds nuw %struct.OGGPage, ptr %32, i32 0, i32 1
  %34 = load i64, ptr %33, align 8, !tbaa !100
  call void @bytestream_put_le64(ptr noundef %9, i64 noundef %34)
  %35 = load ptr, ptr %7, align 8, !tbaa !9
  %36 = getelementptr inbounds nuw %struct.OGGStreamContext, ptr %35, i32 0, i32 10
  %37 = load i32, ptr %36, align 8, !tbaa !73
  call void @bytestream_put_le32(ptr noundef %9, i32 noundef %37)
  %38 = load ptr, ptr %7, align 8, !tbaa !9
  %39 = getelementptr inbounds nuw %struct.OGGStreamContext, ptr %38, i32 0, i32 0
  %40 = load i32, ptr %39, align 8, !tbaa !118
  %41 = add i32 %40, 1
  store i32 %41, ptr %39, align 8, !tbaa !118
  call void @bytestream_put_le32(ptr noundef %9, i32 noundef %40)
  %42 = load ptr, ptr %9, align 8, !tbaa !39
  store ptr %42, ptr %10, align 8, !tbaa !39
  call void @bytestream_put_le32(ptr noundef %9, i32 noundef 0)
  %43 = load ptr, ptr %5, align 8, !tbaa !95
  %44 = getelementptr inbounds nuw %struct.OGGPage, ptr %43, i32 0, i32 4
  %45 = load i8, ptr %44, align 1, !tbaa !97
  %46 = zext i8 %45 to i32
  call void @bytestream_put_byte(ptr noundef %9, i32 noundef %46)
  %47 = load ptr, ptr %5, align 8, !tbaa !95
  %48 = getelementptr inbounds nuw %struct.OGGPage, ptr %47, i32 0, i32 5
  %49 = getelementptr inbounds [255 x i8], ptr %48, i64 0, i64 0
  %50 = load ptr, ptr %5, align 8, !tbaa !95
  %51 = getelementptr inbounds nuw %struct.OGGPage, ptr %50, i32 0, i32 4
  %52 = load i8, ptr %51, align 1, !tbaa !97
  %53 = zext i8 %52 to i32
  call void @bytestream_put_buffer(ptr noundef %9, ptr noundef %49, i32 noundef %53)
  %54 = load ptr, ptr %11, align 8, !tbaa !116
  %55 = getelementptr inbounds [282 x i8], ptr %8, i64 0, i64 0
  %56 = load ptr, ptr %9, align 8, !tbaa !39
  %57 = getelementptr inbounds [282 x i8], ptr %8, i64 0, i64 0
  %58 = ptrtoint ptr %56 to i64
  %59 = ptrtoint ptr %57 to i64
  %60 = sub i64 %58, %59
  %61 = call i32 @av_crc(ptr noundef %54, i32 noundef 0, ptr noundef %55, i64 noundef %60) #11
  store i32 %61, ptr %12, align 4, !tbaa !11
  %62 = load ptr, ptr %11, align 8, !tbaa !116
  %63 = load i32, ptr %12, align 4, !tbaa !11
  %64 = load ptr, ptr %5, align 8, !tbaa !95
  %65 = getelementptr inbounds nuw %struct.OGGPage, ptr %64, i32 0, i32 6
  %66 = getelementptr inbounds [65025 x i8], ptr %65, i64 0, i64 0
  %67 = load ptr, ptr %5, align 8, !tbaa !95
  %68 = getelementptr inbounds nuw %struct.OGGPage, ptr %67, i32 0, i32 7
  %69 = load i16, ptr %68, align 2, !tbaa !99
  %70 = zext i16 %69 to i64
  %71 = call i32 @av_crc(ptr noundef %62, i32 noundef %63, ptr noundef %66, i64 noundef %70) #11
  store i32 %71, ptr %12, align 4, !tbaa !11
  %72 = load i32, ptr %12, align 4, !tbaa !11
  call void @bytestream_put_be32(ptr noundef %10, i32 noundef %72)
  %73 = load ptr, ptr %4, align 8, !tbaa !4
  %74 = getelementptr inbounds nuw %struct.AVFormatContext, ptr %73, i32 0, i32 4
  %75 = load ptr, ptr %74, align 8, !tbaa !119
  %76 = getelementptr inbounds [282 x i8], ptr %8, i64 0, i64 0
  %77 = load ptr, ptr %9, align 8, !tbaa !39
  %78 = getelementptr inbounds [282 x i8], ptr %8, i64 0, i64 0
  %79 = ptrtoint ptr %77 to i64
  %80 = ptrtoint ptr %78 to i64
  %81 = sub i64 %79, %80
  %82 = trunc i64 %81 to i32
  call void @avio_write(ptr noundef %75, ptr noundef %76, i32 noundef %82)
  %83 = load ptr, ptr %4, align 8, !tbaa !4
  %84 = getelementptr inbounds nuw %struct.AVFormatContext, ptr %83, i32 0, i32 4
  %85 = load ptr, ptr %84, align 8, !tbaa !119
  %86 = load ptr, ptr %5, align 8, !tbaa !95
  %87 = getelementptr inbounds nuw %struct.OGGPage, ptr %86, i32 0, i32 6
  %88 = getelementptr inbounds [65025 x i8], ptr %87, i64 0, i64 0
  %89 = load ptr, ptr %5, align 8, !tbaa !95
  %90 = getelementptr inbounds nuw %struct.OGGPage, ptr %89, i32 0, i32 7
  %91 = load i16, ptr %90, align 2, !tbaa !99
  %92 = zext i16 %91 to i32
  call void @avio_write(ptr noundef %85, ptr noundef %88, i32 noundef %92)
  %93 = load ptr, ptr %4, align 8, !tbaa !4
  %94 = getelementptr inbounds nuw %struct.AVFormatContext, ptr %93, i32 0, i32 4
  %95 = load ptr, ptr %94, align 8, !tbaa !119
  call void @avio_write_marker(ptr noundef %95, i64 noundef -9223372036854775808, i32 noundef 5)
  %96 = load ptr, ptr %7, align 8, !tbaa !9
  %97 = getelementptr inbounds nuw %struct.OGGStreamContext, ptr %96, i32 0, i32 8
  %98 = load i32, ptr %97, align 4, !tbaa !111
  %99 = add i32 %98, -1
  store i32 %99, ptr %97, align 4, !tbaa !111
  call void @llvm.lifetime.end.p0(i64 4, ptr %12) #9
  call void @llvm.lifetime.end.p0(i64 8, ptr %11) #9
  call void @llvm.lifetime.end.p0(i64 8, ptr %10) #9
  call void @llvm.lifetime.end.p0(i64 8, ptr %9) #9
  call void @llvm.lifetime.end.p0(i64 282, ptr %8) #9
  call void @llvm.lifetime.end.p0(i64 8, ptr %7) #9
  ret void
}

; Function Attrs: nounwind uwtable
define internal void @ogg_write_pages(ptr noundef %0, i32 noundef %1) #0 {
  %3 = alloca ptr, align 8
  %4 = alloca i32, align 4
  %5 = alloca ptr, align 8
  %6 = alloca ptr, align 8
  %7 = alloca ptr, align 8
  %8 = alloca i32, align 4
  %9 = alloca ptr, align 8
  store ptr %0, ptr %3, align 8, !tbaa !4
  store i32 %1, ptr %4, align 4, !tbaa !11
  call void @llvm.lifetime.start.p0(i64 8, ptr %5) #9
  %10 = load ptr, ptr %3, align 8, !tbaa !4
  %11 = getelementptr inbounds nuw %struct.AVFormatContext, ptr %10, i32 0, i32 3
  %12 = load ptr, ptr %11, align 8, !tbaa !56
  store ptr %12, ptr %5, align 8, !tbaa !57
  call void @llvm.lifetime.start.p0(i64 8, ptr %6) #9
  call void @llvm.lifetime.start.p0(i64 8, ptr %7) #9
  %13 = load ptr, ptr %5, align 8, !tbaa !57
  %14 = getelementptr inbounds nuw %struct.OGGContext, ptr %13, i32 0, i32 1
  %15 = load ptr, ptr %14, align 8, !tbaa !85
  %16 = icmp ne ptr %15, null
  br i1 %16, label %18, label %17

17:                                               ; preds = %2
  store i32 1, ptr %8, align 4
  br label %71

18:                                               ; preds = %2
  %19 = load ptr, ptr %5, align 8, !tbaa !57
  %20 = getelementptr inbounds nuw %struct.OGGContext, ptr %19, i32 0, i32 1
  %21 = load ptr, ptr %20, align 8, !tbaa !85
  store ptr %21, ptr %7, align 8, !tbaa !86
  br label %22

22:                                               ; preds = %66, %18
  %23 = load ptr, ptr %7, align 8, !tbaa !86
  %24 = icmp ne ptr %23, null
  br i1 %24, label %25, label %67

25:                                               ; preds = %22
  call void @llvm.lifetime.start.p0(i64 8, ptr %9) #9
  %26 = load ptr, ptr %3, align 8, !tbaa !4
  %27 = getelementptr inbounds nuw %struct.AVFormatContext, ptr %26, i32 0, i32 7
  %28 = load ptr, ptr %27, align 8, !tbaa !29
  %29 = load ptr, ptr %7, align 8, !tbaa !86
  %30 = getelementptr inbounds nuw %struct.OGGPageList, ptr %29, i32 0, i32 0
  %31 = getelementptr inbounds nuw %struct.OGGPage, ptr %30, i32 0, i32 2
  %32 = load i32, ptr %31, align 8, !tbaa !113
  %33 = sext i32 %32 to i64
  %34 = getelementptr inbounds ptr, ptr %28, i64 %33
  %35 = load ptr, ptr %34, align 8, !tbaa !30
  %36 = getelementptr inbounds nuw %struct.AVStream, ptr %35, i32 0, i32 4
  %37 = load ptr, ptr %36, align 8, !tbaa !32
  store ptr %37, ptr %9, align 8, !tbaa !9
  %38 = load ptr, ptr %9, align 8, !tbaa !9
  %39 = getelementptr inbounds nuw %struct.OGGStreamContext, ptr %38, i32 0, i32 8
  %40 = load i32, ptr %39, align 4, !tbaa !111
  %41 = icmp ult i32 %40, 2
  br i1 %41, label %42, label %46

42:                                               ; preds = %25
  %43 = load i32, ptr %4, align 4, !tbaa !11
  %44 = icmp ne i32 %43, 0
  br i1 %44, label %46, label %45

45:                                               ; preds = %42
  store i32 2, ptr %8, align 4
  br label %64

46:                                               ; preds = %42, %25
  %47 = load ptr, ptr %3, align 8, !tbaa !4
  %48 = load ptr, ptr %7, align 8, !tbaa !86
  %49 = getelementptr inbounds nuw %struct.OGGPageList, ptr %48, i32 0, i32 0
  %50 = load i32, ptr %4, align 4, !tbaa !11
  %51 = icmp eq i32 %50, 1
  br i1 %51, label %52, label %57

52:                                               ; preds = %46
  %53 = load ptr, ptr %9, align 8, !tbaa !9
  %54 = getelementptr inbounds nuw %struct.OGGStreamContext, ptr %53, i32 0, i32 8
  %55 = load i32, ptr %54, align 4, !tbaa !111
  %56 = icmp eq i32 %55, 1
  br label %57

57:                                               ; preds = %52, %46
  %58 = phi i1 [ false, %46 ], [ %56, %52 ]
  %59 = select i1 %58, i32 4, i32 0
  call void @ogg_write_page(ptr noundef %47, ptr noundef %49, i32 noundef %59)
  %60 = load ptr, ptr %7, align 8, !tbaa !86
  %61 = getelementptr inbounds nuw %struct.OGGPageList, ptr %60, i32 0, i32 1
  %62 = load ptr, ptr %61, align 8, !tbaa !88
  store ptr %62, ptr %6, align 8, !tbaa !86
  call void @av_freep(ptr noundef %7)
  %63 = load ptr, ptr %6, align 8, !tbaa !86
  store ptr %63, ptr %7, align 8, !tbaa !86
  store i32 0, ptr %8, align 4
  br label %64

64:                                               ; preds = %57, %45
  call void @llvm.lifetime.end.p0(i64 8, ptr %9) #9
  %65 = load i32, ptr %8, align 4
  switch i32 %65, label %74 [
    i32 0, label %66
    i32 2, label %67
  ]

66:                                               ; preds = %64
  br label %22, !llvm.loop !114

67:                                               ; preds = %64, %22
  %68 = load ptr, ptr %7, align 8, !tbaa !86
  %69 = load ptr, ptr %5, align 8, !tbaa !57
  %70 = getelementptr inbounds nuw %struct.OGGContext, ptr %69, i32 0, i32 1
  store ptr %68, ptr %70, align 8, !tbaa !85
  store i32 0, ptr %8, align 4
  br label %71

71:                                               ; preds = %67, %17
  call void @llvm.lifetime.end.p0(i64 8, ptr %7) #9
  call void @llvm.lifetime.end.p0(i64 8, ptr %6) #9
  call void @llvm.lifetime.end.p0(i64 8, ptr %5) #9
  %72 = load i32, ptr %8, align 4
  switch i32 %72, label %74 [
    i32 0, label %73
    i32 1, label %73
  ]

73:                                               ; preds = %71, %71
  ret void

74:                                               ; preds = %71, %64
  unreachable
}