; Function Attrs: nounwind uwtable
define internal fastcc void @ogg_write_pages(ptr noundef readonly captures(none) %0, i32 noundef range(i32 0, 3) %1) unnamed_addr #0 {
  %3 = alloca [282 x i8], align 16
  %4 = alloca ptr, align 8
  %5 = getelementptr inbounds nuw i8, ptr %0, i64 24
  %6 = load ptr, ptr %5, align 8, !tbaa !51
  call void @llvm.lifetime.start.p0(i64 8, ptr nonnull %4) #9
  %7 = getelementptr inbounds nuw i8, ptr %6, i64 8
  %8 = load ptr, ptr %7, align 8, !tbaa !109
  %.not = icmp eq ptr %8, null
  br i1 %.not, label %75, label %.preheader

.preheader:                                       ; preds = %2
  store ptr %8, ptr %4, align 8, !tbaa !62
  %9 = getelementptr inbounds nuw i8, ptr %0, i64 48
  %10 = icmp ne i32 %1, 0
  %11 = icmp eq i32 %1, 1
  %12 = getelementptr inbounds nuw i8, ptr %3, i64 4
  %13 = getelementptr inbounds nuw i8, ptr %3, i64 5
  %14 = getelementptr inbounds nuw i8, ptr %3, i64 6
  %15 = getelementptr inbounds nuw i8, ptr %3, i64 14
  %16 = getelementptr inbounds nuw i8, ptr %3, i64 18
  %17 = getelementptr inbounds nuw i8, ptr %3, i64 22
  %18 = getelementptr inbounds nuw i8, ptr %3, i64 26
  %19 = getelementptr inbounds nuw i8, ptr %3, i64 27
  %20 = ptrtoint ptr %3 to i64
  %21 = getelementptr inbounds nuw i8, ptr %0, i64 32
  br label %60

thread-pre-split:                                 ; preds = %60
  %22 = icmp eq i32 %71, 1
  %23 = and i1 %11, %22
  call void @llvm.lifetime.start.p0(i64 282, ptr nonnull %3) #9
  %24 = call ptr @av_crc_get_table(i32 noundef 3) #9
  store i32 1399285583, ptr %3, align 16, !tbaa !48
  store i8 0, ptr %12, align 4, !tbaa !48
  %25 = getelementptr inbounds nuw i8, ptr %61, i64 20
  %26 = load i8, ptr %25, align 4, !tbaa !47
  %27 = select i1 %23, i8 4, i8 0
  %28 = or i8 %26, %27
  store i8 %28, ptr %13, align 1, !tbaa !48
  %29 = getelementptr inbounds nuw i8, ptr %61, i64 8
  %30 = load i64, ptr %29, align 8, !tbaa !50
  store i64 %30, ptr %14, align 2, !tbaa !48
  %31 = getelementptr inbounds nuw i8, ptr %69, i64 65376
  %32 = load i32, ptr %31, align 8, !tbaa !94
  store i32 %32, ptr %15, align 2, !tbaa !48
  %33 = load i32, ptr %69, align 8, !tbaa !114
  %34 = add i32 %33, 1
  store i32 %34, ptr %69, align 8, !tbaa !114
  store i32 %33, ptr %16, align 2, !tbaa !48
  store i32 0, ptr %17, align 2, !tbaa !48
  %35 = getelementptr inbounds nuw i8, ptr %61, i64 21
  %36 = load i8, ptr %35, align 1, !tbaa !46
  store i8 %36, ptr %18, align 2, !tbaa !48
  %37 = getelementptr inbounds nuw i8, ptr %61, i64 22
  %38 = zext i8 %36 to i64
  call void @llvm.memcpy.p0.p0.i64(ptr nonnull align 1 %19, ptr nonnull align 1 %37, i64 %38, i1 false)
  %39 = getelementptr inbounds nuw i8, ptr %19, i64 %38
  %40 = ptrtoint ptr %39 to i64
  %41 = sub i64 %40, %20
  %42 = call i32 @av_crc(ptr noundef %24, i32 noundef 0, ptr noundef nonnull %3, i64 noundef %41) #11
  %43 = getelementptr inbounds nuw i8, ptr %61, i64 277
  %44 = getelementptr inbounds nuw i8, ptr %61, i64 65302
  %45 = load i16, ptr %44, align 2, !tbaa !49
  %46 = zext i16 %45 to i64
  %47 = call i32 @av_crc(ptr noundef %24, i32 noundef %42, ptr noundef nonnull %43, i64 noundef %46) #11
  %48 = call i32 @llvm.bswap.i32(i32 %47)
  store i32 %48, ptr %17, align 2, !tbaa !48
  %49 = load ptr, ptr %21, align 8, !tbaa !115
  %50 = trunc i64 %41 to i32
  call void @avio_write(ptr noundef %49, ptr noundef nonnull %3, i32 noundef %50) #9
  %51 = load ptr, ptr %21, align 8, !tbaa !115
  %52 = load i16, ptr %44, align 2, !tbaa !49
  %53 = zext i16 %52 to i32
  call void @avio_write(ptr noundef %51, ptr noundef nonnull %43, i32 noundef %53) #9
  %54 = load ptr, ptr %21, align 8, !tbaa !115
  call void @avio_write_marker(ptr noundef %54, i64 noundef -9223372036854775808, i32 noundef 5) #9
  %55 = load i32, ptr %70, align 4, !tbaa !59
  %56 = add i32 %55, -1
  store i32 %56, ptr %70, align 4, !tbaa !59
  call void @llvm.lifetime.end.p0(i64 282, ptr nonnull %3) #9
  %57 = load ptr, ptr %4, align 8, !tbaa !62
  %58 = getelementptr inbounds nuw i8, ptr %57, i64 65304
  %59 = load ptr, ptr %58, align 8, !tbaa !66
  call void @av_freep(ptr noundef nonnull %4) #9
  store ptr %59, ptr %4, align 8, !tbaa !62
  %.not14 = icmp eq ptr %59, null
  br i1 %.not14, label %73, label %60

60:                                               ; preds = %.preheader, %thread-pre-split
  %61 = phi ptr [ %8, %.preheader ], [ %59, %thread-pre-split ]
  %62 = load ptr, ptr %9, align 8, !tbaa !24
  %63 = getelementptr inbounds nuw i8, ptr %61, i64 16
  %64 = load i32, ptr %63, align 8, !tbaa !116
  %65 = sext i32 %64 to i64
  %66 = getelementptr inbounds ptr, ptr %62, i64 %65
  %67 = load ptr, ptr %66, align 8, !tbaa !25
  %68 = getelementptr inbounds nuw i8, ptr %67, i64 24
  %69 = load ptr, ptr %68, align 8, !tbaa !27
  %70 = getelementptr inbounds nuw i8, ptr %69, i64 68
  %71 = load i32, ptr %70, align 4, !tbaa !59
  %72 = icmp ugt i32 %71, 1
  %or.cond = or i1 %10, %72
  br i1 %or.cond, label %thread-pre-split, label %73

73:                                               ; preds = %60, %thread-pre-split
  %74 = phi ptr [ %61, %60 ], [ null, %thread-pre-split ]
  store ptr %74, ptr %7, align 8, !tbaa !109
  br label %75

75:                                               ; preds = %2, %73
  call void @llvm.lifetime.end.p0(i64 8, ptr nonnull %4) #9
  ret void
}